; Function Attrs: mustprogress nofree norecurse nosync nounwind willreturn memory(argmem: read) uwtable
define noundef zeroext i1 @_Z18inputrecNptTrotterPK10t_inputrec(ptr noundef readonly captures(none) %0) local_unnamed_addr #15 {
  %2 = getelementptr inbounds nuw i8, ptr %0, i64 4
  %3 = load i32, ptr %2, align 4, !tbaa !265
  %4 = and i32 %3, -2
  %switch = icmp eq i32 %4, 10
  br i1 %switch, label %5, label %13

5:                                                ; preds = %1
  %6 = getelementptr inbounds nuw i8, ptr %0, i64 204
  %7 = load i32, ptr %6, align 4, !tbaa !247
  %8 = icmp eq i32 %7, 4
  br i1 %8, label %9, label %13

9:                                                ; preds = %5
  %10 = getelementptr inbounds nuw i8, ptr %0, i64 192
  %11 = load i32, ptr %10, align 8, !tbaa !242
  %12 = icmp eq i32 %11, 2
  br label %13

13:                                               ; preds = %1, %9, %5
  %14 = phi i1 [ false, %5 ], [ %12, %9 ], [ false, %1 ]
  ret i1 %14
}